target datalayout = "e-m:e-p270:32:32-p271:32:32-p272:64:64-i64:64-i128:128-f80:128-n8:16:32:64-S128"
target triple = "x86_64-pc-linux-gnu"

%struct.RelationData = type { %struct.RelFileLocator, ptr, i32, i32, i8, i8, i8, i8, i8, i32, i32, i32, i32, ptr, ptr, i32, %struct.LockInfoData, ptr, ptr, ptr, ptr, ptr, i8, ptr, ptr, ptr, ptr, ptr, ptr, i32, ptr, i8, ptr, ptr, i32, i8, i32, ptr, i8, ptr, ptr, ptr, ptr, ptr, ptr, ptr, i32, ptr, ptr, ptr, ptr, ptr, ptr, ptr, ptr, ptr, ptr, ptr, ptr, ptr, ptr, ptr, ptr, ptr, ptr, ptr, i32, i8, ptr }
%struct.RelFileLocator = type { i32, i32, i32 }
%struct.LockInfoData = type { %struct.LockRelId }
%struct.LockRelId = type { i32, i32 }
%struct.nameData = type { [64 x i8] }
%struct.HeapTupleData = type { i32, %struct.ItemPointerData, i32, ptr }
%struct.ItemPointerData = type { %struct.BlockIdData, i16 }
%struct.BlockIdData = type { i16, i16 }
%struct.FormData_pg_rewrite = type { i32, %struct.nameData, i32, i8, i8, i8 }
%struct.HeapTupleHeaderData = type { %union.anon, %struct.ItemPointerData, i16, i16, i8, [0 x i8] }
%union.anon = type { %struct.HeapTupleFields }
%struct.HeapTupleFields = type { i32, i32, %union.anon.0 }
%union.anon.0 = type { i32 }

@.str.1 = private unnamed_addr constant [16 x i8] c"rewriteDefine.c\00", align 1
@.str.22 = private unnamed_addr constant [43 x i8] c"rule \22%s\22 for relation \22%s\22 does not exist\00", align 1
@__func__.EnableDisableRule = private unnamed_addr constant [18 x i8] c"EnableDisableRule\00", align 1
@object_access_hook = external global ptr, align 8

; Function Attrs: inlinehint nounwind uwtable
define internal i64 @CharGetDatum(i8 noundef signext %0) #6 {
  %2 = alloca i8, align 1
  store i8 %0, ptr %2, align 1
  %3 = load i8, ptr %2, align 1
  %4 = sext i8 %3 to i64
  ret i64 %4
}

; Function Attrs: inlinehint nounwind uwtable
define internal signext i8 @DatumGetChar(i64 noundef %0) #6 {
  %2 = alloca i64, align 8
  store i64 %0, ptr %2, align 8
  %3 = load i64, ptr %2, align 8
  %4 = trunc i64 %3 to i8
  ret i8 %4
}

; Function Attrs: inlinehint nounwind uwtable
define internal ptr @GETSTRUCT(ptr noundef %0) #6 {
  %2 = alloca ptr, align 8
  store ptr %0, ptr %2, align 8
  %3 = load ptr, ptr %2, align 8
  %4 = getelementptr inbounds nuw %struct.HeapTupleData, ptr %3, i32 0, i32 3
  %5 = load ptr, ptr %4, align 8
  %6 = load ptr, ptr %2, align 8
  %7 = getelementptr inbounds nuw %struct.HeapTupleData, ptr %6, i32 0, i32 3
  %8 = load ptr, ptr %7, align 8
  %9 = getelementptr inbounds nuw %struct.HeapTupleHeaderData, ptr %8, i32 0, i32 4
  %10 = load i8, ptr %9, align 2
  %11 = zext i8 %10 to i32
  %12 = sext i32 %11 to i64
  %13 = getelementptr inbounds i8, ptr %5, i64 %12
  ret ptr %13
}

; Function Attrs: inlinehint nounwind uwtable
define internal i64 @PointerGetDatum(ptr noundef %0) #6 {
  %2 = alloca ptr, align 8
  store ptr %0, ptr %2, align 8
  %3 = load ptr, ptr %2, align 8
  %4 = ptrtoint ptr %3 to i64
  ret i64 %4
}

; Function Attrs: inlinehint nounwind uwtable
define internal i64 @ObjectIdGetDatum(i32 noundef %0) #6 {
  %2 = alloca i32, align 4
  store i32 %0, ptr %2, align 4
  %3 = load i32, ptr %2, align 4
  %4 = zext i32 %3 to i64
  ret i64 %4
}

; Function Attrs: nounwind uwtable
define dso_local void @EnableDisableRule(ptr noundef %0, ptr noundef %1, i8 noundef signext %2) #0 {
  %4 = alloca ptr, align 8
  %5 = alloca ptr, align 8
  %6 = alloca i8, align 1
  %7 = alloca ptr, align 8
  %8 = alloca i32, align 4
  %9 = alloca i32, align 4
  %10 = alloca ptr, align 8
  %11 = alloca ptr, align 8
  %12 = alloca i8, align 1
  store ptr %0, ptr %4, align 8
  store ptr %1, ptr %5, align 8
  store i8 %2, ptr %6, align 1
  call void @llvm.lifetime.start.p0(i64 8, ptr %7) #8
  call void @llvm.lifetime.start.p0(i64 4, ptr %8) #8
  %13 = load ptr, ptr %4, align 8
  %14 = getelementptr inbounds nuw %struct.RelationData, ptr %13, i32 0, i32 15
  %15 = load i32, ptr %14, align 8
  store i32 %15, ptr %8, align 4
  call void @llvm.lifetime.start.p0(i64 4, ptr %9) #8
  call void @llvm.lifetime.start.p0(i64 8, ptr %10) #8
  call void @llvm.lifetime.start.p0(i64 8, ptr %11) #8
  call void @llvm.lifetime.start.p0(i64 1, ptr %12) #8
  store i8 0, ptr %12, align 1
  %16 = call ptr @table_open(i32 noundef 2618, i32 noundef 3)
  store ptr %16, ptr %7, align 8
  %17 = load i32, ptr %8, align 4
  %18 = call i64 @ObjectIdGetDatum(i32 noundef %17)
  %19 = load ptr, ptr %5, align 8
  %20 = call i64 @PointerGetDatum(ptr noundef %19)
  %21 = call ptr @SearchSysCacheCopy(i32 noundef 60, i64 noundef %18, i64 noundef %20, i64 noundef 0, i64 noundef 0)
  store ptr %21, ptr %10, align 8
  %22 = load ptr, ptr %10, align 8
  %23 = icmp ne ptr %22, null
  br i1 %23, label %39, label %24

24:                                               ; preds = %3
  br label %25

25:                                               ; preds = %24
  br i1 true, label %26, label %28

26:                                               ; preds = %25
  %27 = call zeroext i1 @errstart_cold(i32 noundef 21, ptr noundef null) #9
  br i1 %27, label %30, label %36

28:                                               ; preds = %25
  %29 = call zeroext i1 @errstart(i32 noundef 21, ptr noundef null)
  br i1 %29, label %30, label %36

30:                                               ; preds = %28, %26
  %31 = call i32 @errcode(i32 noundef 67137668)
  %32 = load ptr, ptr %5, align 8
  %33 = load i32, ptr %8, align 4
  %34 = call ptr @get_rel_name(i32 noundef %33)
  %35 = call i32 (ptr, ...) @errmsg(ptr noundef @.str.22, ptr noundef %32, ptr noundef %34)
  call void @errfinish(ptr noundef @.str.1, i32 noundef 712, ptr noundef @__func__.EnableDisableRule)
  br label %36

36:                                               ; preds = %30, %28, %26
  unreachable

37:                                               ; No predecessors!
  br label %38

38:                                               ; preds = %37
  br label %39

39:                                               ; preds = %38, %3
  %40 = load ptr, ptr %10, align 8
  %41 = call ptr @GETSTRUCT(ptr noundef %40)
  store ptr %41, ptr %11, align 8
  %42 = load ptr, ptr %11, align 8
  %43 = getelementptr inbounds nuw %struct.FormData_pg_rewrite, ptr %42, i32 0, i32 2
  %44 = load i32, ptr %43, align 4
  store i32 %44, ptr %9, align 4
  %45 = load i32, ptr %9, align 4
  %46 = call i32 @GetUserId()
  %47 = call zeroext i1 @object_ownercheck(i32 noundef 1259, i32 noundef %45, i32 noundef %46)
  br i1 %47, label %54, label %48

48:                                               ; preds = %39
  %49 = load i32, ptr %9, align 4
  %50 = call signext i8 @get_rel_relkind(i32 noundef %49)
  %51 = call i32 @get_relkind_objtype(i8 noundef signext %50)
  %52 = load i32, ptr %9, align 4
  %53 = call ptr @get_rel_name(i32 noundef %52)
  call void @aclcheck_error(i32 noundef 2, i32 noundef %51, ptr noundef %53)
  br label %54

54:                                               ; preds = %48, %39
  %55 = load ptr, ptr %11, align 8
  %56 = getelementptr inbounds nuw %struct.FormData_pg_rewrite, ptr %55, i32 0, i32 4
  %57 = load i8, ptr %56, align 1
  %58 = sext i8 %57 to i64
  %59 = call signext i8 @DatumGetChar(i64 noundef %58)
  %60 = sext i8 %59 to i32
  %61 = load i8, ptr %6, align 1
  %62 = sext i8 %61 to i32
  %63 = icmp ne i32 %60, %62
  br i1 %63, label %64, label %74

64:                                               ; preds = %54
  %65 = load i8, ptr %6, align 1
  %66 = call i64 @CharGetDatum(i8 noundef signext %65)
  %67 = trunc i64 %66 to i8
  %68 = load ptr, ptr %11, align 8
  %69 = getelementptr inbounds nuw %struct.FormData_pg_rewrite, ptr %68, i32 0, i32 4
  store i8 %67, ptr %69, align 1
  %70 = load ptr, ptr %7, align 8
  %71 = load ptr, ptr %10, align 8
  %72 = getelementptr inbounds nuw %struct.HeapTupleData, ptr %71, i32 0, i32 1
  %73 = load ptr, ptr %10, align 8
  call void @CatalogTupleUpdate(ptr noundef %70, ptr noundef %72, ptr noundef %73)
  store i8 1, ptr %12, align 1
  br label %74

74:                                               ; preds = %64, %54
  br label %75

75:                                               ; preds = %74
  %76 = load ptr, ptr @object_access_hook, align 8
  %77 = icmp ne ptr %76, null
  br i1 %77, label %78, label %82

78:                                               ; preds = %75
  %79 = load ptr, ptr %11, align 8
  %80 = getelementptr inbounds nuw %struct.FormData_pg_rewrite, ptr %79, i32 0, i32 0
  %81 = load i32, ptr %80, align 4
  call void @RunObjectPostAlterHook(i32 noundef 2618, i32 noundef %81, i32 noundef 0, i32 noundef 0, i1 noundef zeroext false)
  br label %82

82:                                               ; preds = %78, %75
  br label %83

83:                                               ; preds = %82
  br label %84

84:                                               ; preds = %83
  %85 = load ptr, ptr %10, align 8
  call void @heap_freetuple(ptr noundef %85)
  %86 = load ptr, ptr %7, align 8
  call void @table_close(ptr noundef %86, i32 noundef 3)
  %87 = load i8, ptr %12, align 1, !range !4, !noundef !5
  %88 = trunc i8 %87 to i1
  br i1 %88, label %89, label %91

89:                                               ; preds = %84
  %90 = load ptr, ptr %4, align 8
  call void @CacheInvalidateRelcache(ptr noundef %90)
  br label %91

91:                                               ; preds = %89, %84
  call void @llvm.lifetime.end.p0(i64 1, ptr %12) #8
  call void @llvm.lifetime.end.p0(i64 8, ptr %11) #8
  call void @llvm.lifetime.end.p0(i64 8, ptr %10) #8
  call void @llvm.lifetime.end.p0(i64 4, ptr %9) #8
  call void @llvm.lifetime.end.p0(i64 4, ptr %8) #8
  call void @llvm.lifetime.end.p0(i64 8, ptr %7) #8
  ret void
}