; Function Attrs: nounwind uwtable
define dso_local void @EnableDisableRule(ptr noundef %0, ptr noundef %1, i8 noundef signext %2) local_unnamed_addr #0 {
  %4 = getelementptr inbounds nuw i8, ptr %0, i64 72
  %5 = load i32, ptr %4, align 8
  %6 = tail call ptr @table_open(i32 noundef 2618, i32 noundef 3) #6
  %7 = zext i32 %5 to i64
  %8 = ptrtoint ptr %1 to i64
  %9 = tail call ptr @SearchSysCacheCopy(i32 noundef 60, i64 noundef %7, i64 noundef %8, i64 noundef 0, i64 noundef 0) #6
  %.not = icmp eq ptr %9, null
  br i1 %.not, label %10, label %15

10:                                               ; preds = %3
  %11 = tail call zeroext i1 @errstart_cold(i32 noundef 21, ptr noundef null) #7
  tail call void @llvm.assume(i1 %11)
  %12 = tail call i32 @errcode(i32 noundef 67137668) #6
  %13 = tail call ptr @get_rel_name(i32 noundef %5) #6
  %14 = tail call i32 (ptr, ...) @errmsg(ptr noundef nonnull @.str.22, ptr noundef %1, ptr noundef %13) #6
  tail call void @errfinish(ptr noundef nonnull @.str.1, i32 noundef 712, ptr noundef nonnull @__func__.EnableDisableRule) #6
  unreachable

15:                                               ; preds = %3
  %16 = getelementptr i8, ptr %9, i64 16
  %.val = load ptr, ptr %16, align 8
  %17 = getelementptr inbounds nuw i8, ptr %.val, i64 22
  %18 = load i8, ptr %17, align 2
  %19 = zext i8 %18 to i64
  %20 = getelementptr inbounds nuw i8, ptr %.val, i64 %19
  %21 = getelementptr inbounds nuw i8, ptr %20, i64 68
  %22 = load i32, ptr %21, align 4
  %23 = tail call i32 @GetUserId() #6
  %24 = tail call zeroext i1 @object_ownercheck(i32 noundef 1259, i32 noundef %22, i32 noundef %23) #6
  br i1 %24, label %29, label %25

25:                                               ; preds = %15
  %26 = tail call signext i8 @get_rel_relkind(i32 noundef %22) #6
  %27 = tail call i32 @get_relkind_objtype(i8 noundef signext %26) #6
  %28 = tail call ptr @get_rel_name(i32 noundef %22) #6
  tail call void @aclcheck_error(i32 noundef 2, i32 noundef %27, ptr noundef %28) #6
  br label %29

29:                                               ; preds = %25, %15
  %30 = getelementptr inbounds nuw i8, ptr %20, i64 73
  %31 = load i8, ptr %30, align 1
  %.not23.not = icmp eq i8 %31, %2
  br i1 %.not23.not, label %34, label %32

32:                                               ; preds = %29
  store i8 %2, ptr %30, align 1
  %33 = getelementptr inbounds nuw i8, ptr %9, i64 4
  tail call void @CatalogTupleUpdate(ptr noundef %6, ptr noundef nonnull %33, ptr noundef nonnull %9) #6
  br label %34

34:                                               ; preds = %29, %32
  %35 = load ptr, ptr @object_access_hook, align 8
  %.not24 = icmp eq ptr %35, null
  br i1 %.not24, label %38, label %36

36:                                               ; preds = %34
  %37 = load i32, ptr %20, align 4
  tail call void @RunObjectPostAlterHook(i32 noundef 2618, i32 noundef %37, i32 noundef 0, i32 noundef 0, i1 noundef zeroext false) #6
  br label %38

38:                                               ; preds = %36, %34
  tail call void @heap_freetuple(ptr noundef nonnull %9) #6
  tail call void @table_close(ptr noundef %6, i32 noundef 3) #6
  br i1 %.not23.not, label %40, label %39

39:                                               ; preds = %38
  tail call void @CacheInvalidateRelcache(ptr noundef nonnull %0) #6
  br label %40

40:                                               ; preds = %39, %38
  ret void
}